; Function Attrs: nounwind uwtable
define internal void @_array_task_on_insert(ptr noundef captures(none) initializes((0, 12)) %0, ptr noundef readonly captures(none) %1, i64 %2, ptr readnone captures(none) %3) #0 {
  %5 = alloca %struct.job_record, align 8
  tail call void @llvm.memcpy.p0.p0.i64(ptr noundef nonnull align 4 dereferenceable(12) %0, ptr noundef nonnull align 4 dereferenceable(12) %1, i64 12, i1 false)
  %6 = load i64, ptr getelementptr inbounds nuw (i8, ptr @slurm_conf, i64 320), align 8
  %7 = and i64 %6, 268435456
  %.not = icmp eq i64 %7, 0
  br i1 %.not, label %20, label %8

8:                                                ; preds = %4
  %9 = tail call i32 @get_log_level() #9
  %10 = icmp sgt i32 %9, 3
  br i1 %10, label %11, label %20

11:                                               ; preds = %8
  call void @llvm.memset.p0.i64(ptr noundef nonnull align 8 dereferenceable(1152) %5, i8 0, i64 1152, i1 false)
  store i32 -256427732, ptr %5, align 8
  %12 = getelementptr inbounds nuw i8, ptr %5, i64 48
  %13 = getelementptr inbounds nuw i8, ptr %0, i64 4
  %14 = load i32, ptr %13, align 4
  store i32 %14, ptr %12, align 8
  %15 = getelementptr inbounds nuw i8, ptr %5, i64 52
  %16 = getelementptr inbounds nuw i8, ptr %0, i64 8
  %17 = load i32, ptr %16, align 4
  store i32 %17, ptr %15, align 4
  %18 = getelementptr inbounds nuw i8, ptr %5, i64 392
  %19 = load i32, ptr %0, align 4
  store i32 %19, ptr %18, align 8
  call void (i32, ptr, ...) @log_var(i32 noundef 4, ptr noundef nonnull @.str.37, ptr noundef nonnull @.str.15, ptr noundef nonnull %5) #9
  br label %20

20:                                               ; preds = %8, %11, %4
  ret void
}